target datalayout = "e-m:e-p270:32:32-p271:32:32-p272:64:64-i64:64-i128:128-f80:128-n8:16:32:64-S128"
target triple = "x86_64-pc-linux-gnu"

%struct.ossl_decoder_instance_st = type { ptr, ptr, ptr, ptr, i32, i8 }
%struct.ossl_decoder_st = type { %struct.ossl_endecode_base_st, ptr, ptr, ptr, ptr, ptr, ptr, ptr, ptr, ptr }
%struct.ossl_endecode_base_st = type { ptr, i32, ptr, ptr, ptr, %struct.CRYPTO_REF_COUNT }
%struct.CRYPTO_REF_COUNT = type { i32 }

@.str = private unnamed_addr constant [46 x i8] c"../openssl/crypto/encode_decode/decoder_lib.c\00", align 1
@__func__.OSSL_DECODER_export = private unnamed_addr constant [20 x i8] c"OSSL_DECODER_export\00", align 1

; Function Attrs: nounwind uwtable
define ptr @OSSL_DECODER_INSTANCE_get_decoder_ctx(ptr noundef %0) #0 {
  %2 = alloca ptr, align 8
  %3 = alloca ptr, align 8
  store ptr %0, ptr %3, align 8, !tbaa !30
  %4 = load ptr, ptr %3, align 8, !tbaa !30
  %5 = icmp eq ptr %4, null
  br i1 %5, label %6, label %7

6:                                                ; preds = %1
  store ptr null, ptr %2, align 8
  br label %11

7:                                                ; preds = %1
  %8 = load ptr, ptr %3, align 8, !tbaa !30
  %9 = getelementptr inbounds nuw %struct.ossl_decoder_instance_st, ptr %8, i32 0, i32 1
  %10 = load ptr, ptr %9, align 8, !tbaa !71
  store ptr %10, ptr %2, align 8
  br label %11

11:                                               ; preds = %7, %6
  %12 = load ptr, ptr %2, align 8
  ret ptr %12
}

; Function Attrs: nounwind uwtable
define ptr @OSSL_DECODER_INSTANCE_get_decoder(ptr noundef %0) #0 {
  %2 = alloca ptr, align 8
  %3 = alloca ptr, align 8
  store ptr %0, ptr %3, align 8, !tbaa !30
  %4 = load ptr, ptr %3, align 8, !tbaa !30
  %5 = icmp eq ptr %4, null
  br i1 %5, label %6, label %7

6:                                                ; preds = %1
  store ptr null, ptr %2, align 8
  br label %11

7:                                                ; preds = %1
  %8 = load ptr, ptr %3, align 8, !tbaa !30
  %9 = getelementptr inbounds nuw %struct.ossl_decoder_instance_st, ptr %8, i32 0, i32 0
  %10 = load ptr, ptr %9, align 8, !tbaa !70
  store ptr %10, ptr %2, align 8
  br label %11

11:                                               ; preds = %7, %6
  %12 = load ptr, ptr %2, align 8
  ret ptr %12
}

; Function Attrs: nounwind uwtable
define i32 @OSSL_DECODER_export(ptr noundef %0, ptr noundef %1, i64 noundef %2, ptr noundef %3, ptr noundef %4) #0 {
  %6 = alloca i32, align 4
  %7 = alloca ptr, align 8
  %8 = alloca ptr, align 8
  %9 = alloca i64, align 8
  %10 = alloca ptr, align 8
  %11 = alloca ptr, align 8
  %12 = alloca ptr, align 8
  %13 = alloca ptr, align 8
  %14 = alloca i32, align 4
  store ptr %0, ptr %7, align 8, !tbaa !30
  store ptr %1, ptr %8, align 8, !tbaa !27
  store i64 %2, ptr %9, align 8, !tbaa !12
  store ptr %3, ptr %10, align 8, !tbaa !27
  store ptr %4, ptr %11, align 8, !tbaa !27
  call void @llvm.lifetime.start.p0(i64 8, ptr %12) #7
  store ptr null, ptr %12, align 8, !tbaa !32
  call void @llvm.lifetime.start.p0(i64 8, ptr %13) #7
  store ptr null, ptr %13, align 8, !tbaa !27
  %15 = load ptr, ptr %7, align 8, !tbaa !30
  %16 = icmp ne ptr %15, null
  %17 = zext i1 %16 to i32
  %18 = icmp ne i32 %17, 0
  %19 = xor i1 %18, true
  %20 = xor i1 %19, true
  %21 = zext i1 %20 to i32
  %22 = sext i32 %21 to i64
  %23 = call i64 @llvm.expect.i64(i64 %22, i64 1)
  %24 = icmp ne i64 %23, 0
  br i1 %24, label %25, label %58

25:                                               ; preds = %5
  %26 = load ptr, ptr %8, align 8, !tbaa !27
  %27 = icmp ne ptr %26, null
  %28 = zext i1 %27 to i32
  %29 = icmp ne i32 %28, 0
  %30 = xor i1 %29, true
  %31 = xor i1 %30, true
  %32 = zext i1 %31 to i32
  %33 = sext i32 %32 to i64
  %34 = call i64 @llvm.expect.i64(i64 %33, i64 1)
  %35 = icmp ne i64 %34, 0
  br i1 %35, label %36, label %58

36:                                               ; preds = %25
  %37 = load ptr, ptr %10, align 8, !tbaa !27
  %38 = icmp ne ptr %37, null
  %39 = zext i1 %38 to i32
  %40 = icmp ne i32 %39, 0
  %41 = xor i1 %40, true
  %42 = xor i1 %41, true
  %43 = zext i1 %42 to i32
  %44 = sext i32 %43 to i64
  %45 = call i64 @llvm.expect.i64(i64 %44, i64 1)
  %46 = icmp ne i64 %45, 0
  br i1 %46, label %47, label %58

47:                                               ; preds = %36
  %48 = load ptr, ptr %11, align 8, !tbaa !27
  %49 = icmp ne ptr %48, null
  %50 = zext i1 %49 to i32
  %51 = icmp ne i32 %50, 0
  %52 = xor i1 %51, true
  %53 = xor i1 %52, true
  %54 = zext i1 %53 to i32
  %55 = sext i32 %54 to i64
  %56 = call i64 @llvm.expect.i64(i64 %55, i64 1)
  %57 = icmp ne i64 %56, 0
  br i1 %57, label %59, label %58

58:                                               ; preds = %47, %36, %25, %5
  call void @ERR_new()
  call void @ERR_set_debug(ptr noundef @.str, i32 noundef 677, ptr noundef @__func__.OSSL_DECODER_export)
  call void (i32, i32, ptr, ...) @ERR_set_error(i32 noundef 60, i32 noundef 786690, ptr noundef null)
  store i32 0, ptr %6, align 4
  store i32 1, ptr %14, align 4
  br label %73

59:                                               ; preds = %47
  %60 = load ptr, ptr %7, align 8, !tbaa !30
  %61 = call ptr @OSSL_DECODER_INSTANCE_get_decoder(ptr noundef %60)
  store ptr %61, ptr %12, align 8, !tbaa !32
  %62 = load ptr, ptr %7, align 8, !tbaa !30
  %63 = call ptr @OSSL_DECODER_INSTANCE_get_decoder_ctx(ptr noundef %62)
  store ptr %63, ptr %13, align 8, !tbaa !27
  %64 = load ptr, ptr %12, align 8, !tbaa !32
  %65 = getelementptr inbounds nuw %struct.ossl_decoder_st, ptr %64, i32 0, i32 9
  %66 = load ptr, ptr %65, align 8, !tbaa !98
  %67 = load ptr, ptr %13, align 8, !tbaa !27
  %68 = load ptr, ptr %8, align 8, !tbaa !27
  %69 = load i64, ptr %9, align 8, !tbaa !12
  %70 = load ptr, ptr %10, align 8, !tbaa !27
  %71 = load ptr, ptr %11, align 8, !tbaa !27
  %72 = call i32 %66(ptr noundef %67, ptr noundef %68, i64 noundef %69, ptr noundef %70, ptr noundef %71)
  store i32 %72, ptr %6, align 4
  store i32 1, ptr %14, align 4
  br label %73

73:                                               ; preds = %59, %58
  call void @llvm.lifetime.end.p0(i64 8, ptr %13) #7
  call void @llvm.lifetime.end.p0(i64 8, ptr %12) #7
  %74 = load i32, ptr %6, align 4
  ret i32 %74
}