; Function Attrs: nounwind uwtable
define i32 @OSSL_DECODER_export(ptr noundef readonly captures(address_is_null) %0, ptr noundef %1, i64 noundef %2, ptr noundef %3, ptr noundef %4) local_unnamed_addr #0 {
  %.not = icmp eq ptr %0, null
  %.not16 = icmp eq ptr %1, null
  %or.cond = or i1 %.not, %.not16
  %.not17 = icmp eq ptr %3, null
  %or.cond19 = or i1 %or.cond, %.not17
  %.not18 = icmp eq ptr %4, null
  %or.cond20 = or i1 %or.cond19, %.not18
  br i1 %or.cond20, label %6, label %OSSL_DECODER_INSTANCE_get_decoder_ctx.exit, !prof !74

6:                                                ; preds = %5
  tail call void @ERR_new() #8
  tail call void @ERR_set_debug(ptr noundef nonnull @.str, i32 noundef 677, ptr noundef nonnull @__func__.OSSL_DECODER_export) #8
  tail call void (i32, i32, ptr, ...) @ERR_set_error(i32 noundef 60, i32 noundef 786690, ptr noundef null) #8
  br label %13

OSSL_DECODER_INSTANCE_get_decoder_ctx.exit:       ; preds = %5
  %7 = load ptr, ptr %0, align 8, !tbaa !23
  %8 = getelementptr inbounds nuw i8, ptr %0, i64 8
  %9 = load ptr, ptr %8, align 8, !tbaa !32
  %10 = getelementptr inbounds nuw i8, ptr %7, i64 112
  %11 = load ptr, ptr %10, align 8, !tbaa !75
  %12 = tail call i32 %11(ptr noundef %9, ptr noundef nonnull %1, i64 noundef %2, ptr noundef nonnull %3, ptr noundef nonnull %4) #8
  br label %13

13:                                               ; preds = %OSSL_DECODER_INSTANCE_get_decoder_ctx.exit, %6
  %.0 = phi i32 [ %12, %OSSL_DECODER_INSTANCE_get_decoder_ctx.exit ], [ 0, %6 ]
  ret i32 %.0
}